; Function Attrs: mustprogress nounwind uwtable
define noundef ptr @_Z8wcslowerPw(ptr noundef returned %0) local_unnamed_addr #0 {
  %2 = load i32, ptr %0, align 4
  %.not7 = icmp eq i32 %2, 0
  br i1 %.not7, label %._crit_edge, label %.lr.ph

.lr.ph:                                           ; preds = %1, %.lr.ph
  %3 = phi i32 [ %6, %.lr.ph ], [ %2, %1 ]
  %.08 = phi ptr [ %5, %.lr.ph ], [ %0, %1 ]
  %4 = tail call i32 @towlower(i32 noundef %3) #12
  store i32 %4, ptr %.08, align 4
  %5 = getelementptr inbounds nuw i8, ptr %.08, i64 4
  %6 = load i32, ptr %5, align 4
  %.not = icmp eq i32 %6, 0
  br i1 %.not, label %._crit_edge, label %.lr.ph, !llvm.loop !19

._crit_edge:                                      ; preds = %.lr.ph, %1
  ret ptr %0
}